; Function Attrs: nounwind uwtable
define dso_local ptr @Py_CompileStringExFlags(ptr noundef %0, ptr noundef %1, i32 noundef %2, ptr noundef %3, i32 noundef %4) local_unnamed_addr #0 {
  %6 = tail call ptr @PyUnicode_DecodeFSDefault(ptr noundef %1) #8
  %7 = icmp eq ptr %6, null
  br i1 %7, label %Py_DECREF.exit, label %8

8:                                                ; preds = %5
  %9 = tail call ptr @Py_CompileStringObject(ptr noundef %0, ptr noundef nonnull %6, i32 noundef %2, ptr noundef %3, i32 noundef %4)
  %10 = load i32, ptr %6, align 8, !tbaa !9
  %.not.i = icmp sgt i32 %10, -1
  br i1 %.not.i, label %11, label %Py_DECREF.exit

11:                                               ; preds = %8
  %12 = add nsw i32 %10, -1
  store i32 %12, ptr %6, align 8, !tbaa !9
  %13 = icmp eq i32 %12, 0
  br i1 %13, label %14, label %Py_DECREF.exit

14:                                               ; preds = %11
  tail call void @_Py_Dealloc(ptr noundef nonnull %6) #8
  br label %Py_DECREF.exit

Py_DECREF.exit:                                   ; preds = %14, %11, %8, %5
  %.0 = phi ptr [ null, %5 ], [ %9, %8 ], [ %9, %11 ], [ %9, %14 ]
  ret ptr %.0
}